target datalayout = "e-m:e-p270:32:32-p271:32:32-p272:64:64-i64:64-i128:128-f80:128-n8:16:32:64-S128"
target triple = "x86_64-pc-linux-gnu"

%struct.UCMapping = type { i32, %union.anon, i8, i8, i8, i8 }
%union.anon = type { i32 }
%struct.UCMTable = type { ptr, i32, i32, ptr, i32, i32, ptr, i32, i32, ptr, i8, i8, i8 }

@stderr = external global ptr, align 8

; Function Attrs: mustprogress uwtable
define void @ucm_printMapping(ptr noundef %0, ptr noundef %1, ptr noundef %2) #0 {
  %4 = alloca ptr, align 8
  %5 = alloca ptr, align 8
  %6 = alloca ptr, align 8
  store ptr %0, ptr %4, align 8, !tbaa !3
  store ptr %1, ptr %5, align 8, !tbaa !8
  store ptr %2, ptr %6, align 8, !tbaa !10
  %7 = load ptr, ptr %5, align 8, !tbaa !8
  %8 = load ptr, ptr %5, align 8, !tbaa !8
  %9 = getelementptr inbounds nuw %struct.UCMapping, ptr %8, i32 0, i32 2
  %10 = load i8, ptr %9, align 4, !tbaa !12
  %11 = sext i8 %10 to i32
  %12 = icmp eq i32 %11, 1
  br i1 %12, label %13, label %16

13:                                               ; preds = %3
  %14 = load ptr, ptr %5, align 8, !tbaa !8
  %15 = getelementptr inbounds nuw %struct.UCMapping, ptr %14, i32 0, i32 0
  br label %25

16:                                               ; preds = %3
  %17 = load ptr, ptr %4, align 8, !tbaa !3
  %18 = getelementptr inbounds nuw %struct.UCMTable, ptr %17, i32 0, i32 3
  %19 = load ptr, ptr %18, align 8, !tbaa !15
  %20 = load ptr, ptr %5, align 8, !tbaa !8
  %21 = getelementptr inbounds nuw %struct.UCMapping, ptr %20, i32 0, i32 0
  %22 = load i32, ptr %21, align 4, !tbaa !19
  %23 = sext i32 %22 to i64
  %24 = getelementptr inbounds i32, ptr %19, i64 %23
  br label %25

25:                                               ; preds = %16, %13
  %26 = phi ptr [ %15, %13 ], [ %24, %16 ]
  %27 = load ptr, ptr %5, align 8, !tbaa !8
  %28 = getelementptr inbounds nuw %struct.UCMapping, ptr %27, i32 0, i32 3
  %29 = load i8, ptr %28, align 1, !tbaa !20
  %30 = sext i8 %29 to i32
  %31 = icmp sle i32 %30, 4
  br i1 %31, label %32, label %36

32:                                               ; preds = %25
  %33 = load ptr, ptr %5, align 8, !tbaa !8
  %34 = getelementptr inbounds nuw %struct.UCMapping, ptr %33, i32 0, i32 1
  %35 = getelementptr inbounds [4 x i8], ptr %34, i64 0, i64 0
  br label %45

36:                                               ; preds = %25
  %37 = load ptr, ptr %4, align 8, !tbaa !3
  %38 = getelementptr inbounds nuw %struct.UCMTable, ptr %37, i32 0, i32 6
  %39 = load ptr, ptr %38, align 8, !tbaa !21
  %40 = load ptr, ptr %5, align 8, !tbaa !8
  %41 = getelementptr inbounds nuw %struct.UCMapping, ptr %40, i32 0, i32 1
  %42 = load i32, ptr %41, align 4, !tbaa !22
  %43 = zext i32 %42 to i64
  %44 = getelementptr inbounds nuw i8, ptr %39, i64 %43
  br label %45

45:                                               ; preds = %36, %32
  %46 = phi ptr [ %35, %32 ], [ %44, %36 ]
  %47 = load ptr, ptr %6, align 8, !tbaa !10
  call void @_ZL12printMappingP9UCMappingPiPhP8_IO_FILE(ptr noundef %7, ptr noundef %26, ptr noundef %46, ptr noundef %47)
  ret void
}

; Function Attrs: mustprogress uwtable
define signext i8 @ucm_checkValidity(ptr noundef %0, ptr noundef %1) #0 {
  %3 = alloca ptr, align 8
  %4 = alloca ptr, align 8
  %5 = alloca ptr, align 8
  %6 = alloca ptr, align 8
  %7 = alloca i32, align 4
  %8 = alloca i8, align 1
  store ptr %0, ptr %3, align 8, !tbaa !3
  store ptr %1, ptr %4, align 8, !tbaa !50
  call void @llvm.lifetime.start.p0(i64 8, ptr %5) #12
  call void @llvm.lifetime.start.p0(i64 8, ptr %6) #12
  call void @llvm.lifetime.start.p0(i64 4, ptr %7) #12
  call void @llvm.lifetime.start.p0(i64 1, ptr %8) #12
  %9 = load ptr, ptr %3, align 8, !tbaa !3
  %10 = getelementptr inbounds nuw %struct.UCMTable, ptr %9, i32 0, i32 0
  %11 = load ptr, ptr %10, align 8, !tbaa !30
  store ptr %11, ptr %5, align 8, !tbaa !8
  %12 = load ptr, ptr %5, align 8, !tbaa !8
  %13 = load ptr, ptr %3, align 8, !tbaa !3
  %14 = getelementptr inbounds nuw %struct.UCMTable, ptr %13, i32 0, i32 2
  %15 = load i32, ptr %14, align 4, !tbaa !31
  %16 = sext i32 %15 to i64
  %17 = getelementptr inbounds %struct.UCMapping, ptr %12, i64 %16
  store ptr %17, ptr %6, align 8, !tbaa !8
  store i8 1, ptr %8, align 1, !tbaa !22
  br label %18

18:                                               ; preds = %55, %2
  %19 = load ptr, ptr %5, align 8, !tbaa !8
  %20 = load ptr, ptr %6, align 8, !tbaa !8
  %21 = icmp ult ptr %19, %20
  br i1 %21, label %22, label %58

22:                                               ; preds = %18
  %23 = load ptr, ptr %4, align 8, !tbaa !50
  %24 = load ptr, ptr %5, align 8, !tbaa !8
  %25 = getelementptr inbounds nuw %struct.UCMapping, ptr %24, i32 0, i32 3
  %26 = load i8, ptr %25, align 1, !tbaa !20
  %27 = sext i8 %26 to i32
  %28 = icmp sle i32 %27, 4
  br i1 %28, label %29, label %33

29:                                               ; preds = %22
  %30 = load ptr, ptr %5, align 8, !tbaa !8
  %31 = getelementptr inbounds nuw %struct.UCMapping, ptr %30, i32 0, i32 1
  %32 = getelementptr inbounds [4 x i8], ptr %31, i64 0, i64 0
  br label %42

33:                                               ; preds = %22
  %34 = load ptr, ptr %3, align 8, !tbaa !3
  %35 = getelementptr inbounds nuw %struct.UCMTable, ptr %34, i32 0, i32 6
  %36 = load ptr, ptr %35, align 8, !tbaa !21
  %37 = load ptr, ptr %5, align 8, !tbaa !8
  %38 = getelementptr inbounds nuw %struct.UCMapping, ptr %37, i32 0, i32 1
  %39 = load i32, ptr %38, align 4, !tbaa !22
  %40 = zext i32 %39 to i64
  %41 = getelementptr inbounds nuw i8, ptr %36, i64 %40
  br label %42

42:                                               ; preds = %33, %29
  %43 = phi ptr [ %32, %29 ], [ %41, %33 ]
  %44 = load ptr, ptr %5, align 8, !tbaa !8
  %45 = getelementptr inbounds nuw %struct.UCMapping, ptr %44, i32 0, i32 3
  %46 = load i8, ptr %45, align 1, !tbaa !20
  %47 = sext i8 %46 to i32
  %48 = call i32 @ucm_countChars(ptr noundef %23, ptr noundef %43, i32 noundef %47)
  store i32 %48, ptr %7, align 4, !tbaa !25
  %49 = load i32, ptr %7, align 4, !tbaa !25
  %50 = icmp slt i32 %49, 1
  br i1 %50, label %51, label %55

51:                                               ; preds = %42
  %52 = load ptr, ptr %3, align 8, !tbaa !3
  %53 = load ptr, ptr %5, align 8, !tbaa !8
  %54 = load ptr, ptr @stderr, align 8, !tbaa !10
  call void @ucm_printMapping(ptr noundef %52, ptr noundef %53, ptr noundef %54)
  store i8 0, ptr %8, align 1, !tbaa !22
  br label %55

55:                                               ; preds = %51, %42
  %56 = load ptr, ptr %5, align 8, !tbaa !8
  %57 = getelementptr inbounds nuw %struct.UCMapping, ptr %56, i32 1
  store ptr %57, ptr %5, align 8, !tbaa !8
  br label %18, !llvm.loop !52

58:                                               ; preds = %18
  %59 = load i8, ptr %8, align 1, !tbaa !22
  call void @llvm.lifetime.end.p0(i64 1, ptr %8) #12
  call void @llvm.lifetime.end.p0(i64 4, ptr %7) #12
  call void @llvm.lifetime.end.p0(i64 8, ptr %6) #12
  call void @llvm.lifetime.end.p0(i64 8, ptr %5) #12
  ret i8 %59
}