; Function Attrs: mustprogress uwtable
define signext range(i8 0, 2) i8 @ucm_checkValidity(ptr noundef readonly captures(none) %0, ptr noundef %1) local_unnamed_addr #2 {
  %3 = load ptr, ptr %0, align 8, !tbaa !23
  %4 = getelementptr inbounds nuw i8, ptr %0, i64 12
  %5 = load i32, ptr %4, align 4, !tbaa !24
  %6 = sext i32 %5 to i64
  %7 = getelementptr inbounds %struct.UCMapping, ptr %3, i64 %6
  %8 = icmp sgt i32 %5, 0
  br i1 %8, label %.lr.ph, label %._crit_edge

.lr.ph:                                           ; preds = %2
  %9 = getelementptr inbounds nuw i8, ptr %0, i64 32
  %10 = getelementptr inbounds nuw i8, ptr %0, i64 16
  br label %11

11:                                               ; preds = %.lr.ph, %51
  %.017 = phi i8 [ 1, %.lr.ph ], [ %.1, %51 ]
  %.01516 = phi ptr [ %3, %.lr.ph ], [ %52, %51 ]
  %12 = getelementptr inbounds nuw i8, ptr %.01516, i64 9
  %13 = load i8, ptr %12, align 1, !tbaa !15
  %14 = icmp slt i8 %13, 5
  br i1 %14, label %15, label %17

15:                                               ; preds = %11
  %16 = getelementptr inbounds nuw i8, ptr %.01516, i64 4
  br label %23

17:                                               ; preds = %11
  %18 = load ptr, ptr %9, align 8, !tbaa !16
  %19 = getelementptr inbounds nuw i8, ptr %.01516, i64 4
  %20 = load i32, ptr %19, align 4, !tbaa !17
  %21 = zext i32 %20 to i64
  %22 = getelementptr inbounds nuw i8, ptr %18, i64 %21
  br label %23

23:                                               ; preds = %17, %15
  %24 = phi ptr [ %16, %15 ], [ %22, %17 ]
  %25 = sext i8 %13 to i32
  %26 = tail call i32 @ucm_countChars(ptr noundef %1, ptr noundef %24, i32 noundef %25)
  %27 = icmp slt i32 %26, 1
  br i1 %27, label %28, label %51

28:                                               ; preds = %23
  %29 = load ptr, ptr @stderr, align 8, !tbaa !32
  %30 = getelementptr inbounds nuw i8, ptr %.01516, i64 8
  %31 = load i8, ptr %30, align 4, !tbaa !3
  %32 = icmp eq i8 %31, 1
  br i1 %32, label %38, label %33

33:                                               ; preds = %28
  %34 = load ptr, ptr %10, align 8, !tbaa !8
  %35 = load i32, ptr %.01516, align 4, !tbaa !14
  %36 = sext i32 %35 to i64
  %37 = getelementptr inbounds i32, ptr %34, i64 %36
  br label %38

38:                                               ; preds = %33, %28
  %39 = phi ptr [ %37, %33 ], [ %.01516, %28 ]
  %40 = load i8, ptr %12, align 1, !tbaa !15
  %41 = icmp slt i8 %40, 5
  br i1 %41, label %42, label %44

42:                                               ; preds = %38
  %43 = getelementptr inbounds nuw i8, ptr %.01516, i64 4
  br label %ucm_printMapping.exit

44:                                               ; preds = %38
  %45 = load ptr, ptr %9, align 8, !tbaa !16
  %46 = getelementptr inbounds nuw i8, ptr %.01516, i64 4
  %47 = load i32, ptr %46, align 4, !tbaa !17
  %48 = zext i32 %47 to i64
  %49 = getelementptr inbounds nuw i8, ptr %45, i64 %48
  br label %ucm_printMapping.exit

ucm_printMapping.exit:                            ; preds = %42, %44
  %50 = phi ptr [ %43, %42 ], [ %49, %44 ]
  tail call fastcc void @_ZL12printMappingP9UCMappingPiPhP8_IO_FILE(ptr noundef nonnull readonly %.01516, ptr noundef %39, ptr noundef %50, ptr noundef %29)
  br label %51

51:                                               ; preds = %ucm_printMapping.exit, %23
  %.1 = phi i8 [ 0, %ucm_printMapping.exit ], [ %.017, %23 ]
  %52 = getelementptr inbounds nuw i8, ptr %.01516, i64 12
  %53 = icmp ult ptr %52, %7
  br i1 %53, label %11, label %._crit_edge, !llvm.loop !46

._crit_edge:                                      ; preds = %51, %2
  %.0.lcssa = phi i8 [ 1, %2 ], [ %.1, %51 ]
  ret i8 %.0.lcssa
}